target datalayout = "e-m:e-p270:32:32-p271:32:32-p272:64:64-i64:64-i128:128-f80:128-n8:16:32:64-S128"
target triple = "x86_64-pc-linux-gnu"

@SDL_environment = internal global ptr null, align 8

; Function Attrs: nounwind uwtable
define hidden ptr @SDL_GetEnvironment_REAL() #0 {
  %1 = load ptr, ptr @SDL_environment, align 8
  %2 = icmp ne ptr %1, null
  br i1 %2, label %5, label %3

3:                                                ; preds = %0
  %4 = call ptr @SDL_CreateEnvironment_REAL(i1 noundef zeroext true)
  store ptr %4, ptr @SDL_environment, align 8
  br label %5

5:                                                ; preds = %3, %0
  %6 = load ptr, ptr @SDL_environment, align 8
  ret ptr %6
}

; Function Attrs: nounwind uwtable
define hidden i32 @SDL_setenv_unsafe_REAL(ptr noundef %0, ptr noundef %1, i32 noundef %2) #0 {
  %4 = alloca i32, align 4
  %5 = alloca ptr, align 8
  %6 = alloca ptr, align 8
  %7 = alloca i32, align 4
  store ptr %0, ptr %5, align 8
  store ptr %1, ptr %6, align 8
  store i32 %2, ptr %7, align 4
  %8 = load ptr, ptr %5, align 8
  %9 = icmp ne ptr %8, null
  br i1 %9, label %10, label %22

10:                                               ; preds = %3
  %11 = load ptr, ptr %5, align 8
  %12 = load i8, ptr %11, align 1
  %13 = sext i8 %12 to i32
  %14 = icmp eq i32 %13, 0
  br i1 %14, label %22, label %15

15:                                               ; preds = %10
  %16 = load ptr, ptr %5, align 8
  %17 = call ptr @SDL_strchr_REAL(ptr noundef %16, i32 noundef 61)
  %18 = icmp ne ptr %17, null
  br i1 %18, label %22, label %19

19:                                               ; preds = %15
  %20 = load ptr, ptr %6, align 8
  %21 = icmp ne ptr %20, null
  br i1 %21, label %23, label %22

22:                                               ; preds = %19, %15, %10, %3
  store i32 -1, ptr %4, align 4
  br label %34

23:                                               ; preds = %19
  %24 = call ptr @SDL_GetEnvironment_REAL()
  %25 = load ptr, ptr %5, align 8
  %26 = load ptr, ptr %6, align 8
  %27 = load i32, ptr %7, align 4
  %28 = icmp ne i32 %27, 0
  %29 = call zeroext i1 @SDL_SetEnvironmentVariable_REAL(ptr noundef %24, ptr noundef %25, ptr noundef %26, i1 noundef zeroext %28)
  %30 = load ptr, ptr %5, align 8
  %31 = load ptr, ptr %6, align 8
  %32 = load i32, ptr %7, align 4
  %33 = call i32 @setenv(ptr noundef %30, ptr noundef %31, i32 noundef %32) #7
  store i32 %33, ptr %4, align 4
  br label %34

34:                                               ; preds = %23, %22
  %35 = load i32, ptr %4, align 4
  ret i32 %35
}