; Function Attrs: nounwind uwtable
define hidden i32 @SDL_setenv_unsafe_REAL(ptr noundef %0, ptr noundef %1, i32 noundef %2) local_unnamed_addr #0 {
  %.not = icmp eq ptr %0, null
  br i1 %.not, label %19, label %4

4:                                                ; preds = %3
  %5 = load i8, ptr %0, align 1
  %6 = icmp eq i8 %5, 0
  br i1 %6, label %19, label %7

7:                                                ; preds = %4
  %8 = tail call ptr @SDL_strchr_REAL(ptr noundef nonnull %0, i32 noundef 61) #11
  %9 = icmp eq ptr %8, null
  %10 = icmp ne ptr %1, null
  %or.cond = and i1 %10, %9
  br i1 %or.cond, label %11, label %19

11:                                               ; preds = %7
  %12 = load ptr, ptr @SDL_environment, align 8
  %.not.i = icmp eq ptr %12, null
  br i1 %.not.i, label %13, label %SDL_GetEnvironment_REAL.exit

13:                                               ; preds = %11
  %14 = tail call ptr @SDL_CreateEnvironment_REAL(i1 noundef zeroext true)
  store ptr %14, ptr @SDL_environment, align 8
  br label %SDL_GetEnvironment_REAL.exit

SDL_GetEnvironment_REAL.exit:                     ; preds = %11, %13
  %15 = phi ptr [ %14, %13 ], [ %12, %11 ]
  %16 = icmp ne i32 %2, 0
  %17 = tail call zeroext i1 @SDL_SetEnvironmentVariable_REAL(ptr noundef %15, ptr noundef nonnull %0, ptr noundef nonnull %1, i1 noundef zeroext %16)
  %18 = tail call i32 @setenv(ptr noundef nonnull %0, ptr noundef nonnull %1, i32 noundef %2) #11
  br label %19

19:                                               ; preds = %3, %4, %7, %SDL_GetEnvironment_REAL.exit
  %.0 = phi i32 [ %18, %SDL_GetEnvironment_REAL.exit ], [ -1, %7 ], [ -1, %4 ], [ -1, %3 ]
  ret i32 %.0
}